target datalayout = "e-m:e-p270:32:32-p271:32:32-p272:64:64-i64:64-i128:128-f80:128-n8:16:32:64-S128"
target triple = "x86_64-pc-linux-gnu"

%struct._object = type { %union.anon, ptr }
%union.anon = type { i64 }
%struct._typeobject = type { %struct.PyVarObject, ptr, i64, i64, ptr, i64, ptr, ptr, ptr, ptr, ptr, ptr, ptr, ptr, ptr, ptr, ptr, ptr, ptr, i64, ptr, ptr, ptr, ptr, i64, ptr, ptr, ptr, ptr, ptr, ptr, ptr, ptr, ptr, i64, ptr, ptr, ptr, ptr, ptr, ptr, ptr, ptr, ptr, ptr, ptr, i32, ptr, ptr, i8, i16 }
%struct.PyVarObject = type { %struct._object, i64 }

@.str.7 = private unnamed_addr constant [9 x i8] c"dgettext\00", align 1
@_Py_NoneStruct = external global %struct._object, align 8
@PyExc_ValueError = external global ptr, align 8
@.str.14 = private unnamed_addr constant [24 x i8] c"embedded null character\00", align 1
@.str.15 = private unnamed_addr constant [11 x i8] c"argument 2\00", align 1
@.str.16 = private unnamed_addr constant [12 x i8] c"str or None\00", align 1
@.str.38 = private unnamed_addr constant [11 x i8] c"argument 1\00", align 1
@.str.39 = private unnamed_addr constant [4 x i8] c"str\00", align 1

; Function Attrs: nounwind uwtable
define internal ptr @_locale_dgettext_impl(ptr noundef %0, ptr noundef %1, ptr noundef %2) #0 {
  %4 = alloca ptr, align 8
  %5 = alloca ptr, align 8
  %6 = alloca ptr, align 8
  store ptr %0, ptr %4, align 8, !tbaa !4
  store ptr %1, ptr %5, align 8, !tbaa !20
  store ptr %2, ptr %6, align 8, !tbaa !20
  %7 = load ptr, ptr %5, align 8, !tbaa !20
  %8 = load ptr, ptr %6, align 8, !tbaa !20
  %9 = call ptr @dcgettext(ptr noundef %7, ptr noundef %8, i32 noundef 5) #9
  %10 = call ptr @PyUnicode_DecodeLocale(ptr noundef %9, ptr noundef null)
  ret ptr %10
}

; Function Attrs: inlinehint nounwind uwtable
define internal i32 @PyType_HasFeature(ptr noundef %0, i64 noundef %1) #3 {
  %3 = alloca ptr, align 8
  %4 = alloca i64, align 8
  %5 = alloca i64, align 8
  store ptr %0, ptr %3, align 8, !tbaa !22
  store i64 %1, ptr %4, align 8, !tbaa !18
  call void @llvm.lifetime.start.p0(i64 8, ptr %5) #9
  %6 = load ptr, ptr %3, align 8, !tbaa !22
  %7 = getelementptr inbounds nuw %struct._typeobject, ptr %6, i32 0, i32 19
  %8 = load i64, ptr %7, align 8, !tbaa !24
  store i64 %8, ptr %5, align 8, !tbaa !18
  %9 = load i64, ptr %5, align 8, !tbaa !18
  %10 = load i64, ptr %4, align 8, !tbaa !18
  %11 = and i64 %9, %10
  %12 = icmp ne i64 %11, 0
  %13 = zext i1 %12 to i32
  call void @llvm.lifetime.end.p0(i64 8, ptr %5) #9
  ret i32 %13
}

; Function Attrs: inlinehint nounwind uwtable
define internal ptr @_Py_TYPE(ptr noundef %0) #3 {
  %2 = alloca ptr, align 8
  store ptr %0, ptr %2, align 8, !tbaa !4
  %3 = load ptr, ptr %2, align 8, !tbaa !4
  %4 = getelementptr inbounds nuw %struct._object, ptr %3, i32 0, i32 1
  %5 = load ptr, ptr %4, align 8, !tbaa !32
  ret ptr %5
}

; Function Attrs: nounwind uwtable
define internal ptr @_locale_dgettext(ptr noundef %0, ptr noundef %1, i64 noundef %2) #0 {
  %4 = alloca ptr, align 8
  %5 = alloca ptr, align 8
  %6 = alloca ptr, align 8
  %7 = alloca i64, align 8
  %8 = alloca ptr, align 8
  %9 = alloca ptr, align 8
  %10 = alloca ptr, align 8
  %11 = alloca i64, align 8
  %12 = alloca i32, align 4
  %13 = alloca i64, align 8
  store ptr %0, ptr %5, align 8, !tbaa !4
  store ptr %1, ptr %6, align 8, !tbaa !16
  store i64 %2, ptr %7, align 8, !tbaa !18
  call void @llvm.lifetime.start.p0(i64 8, ptr %8) #9
  store ptr null, ptr %8, align 8, !tbaa !4
  call void @llvm.lifetime.start.p0(i64 8, ptr %9) #9
  call void @llvm.lifetime.start.p0(i64 8, ptr %10) #9
  %14 = load i64, ptr %7, align 8, !tbaa !18
  %15 = icmp sle i64 2, %14
  br i1 %15, label %16, label %19

16:                                               ; preds = %3
  %17 = load i64, ptr %7, align 8, !tbaa !18
  %18 = icmp sle i64 %17, 2
  br i1 %18, label %24, label %19

19:                                               ; preds = %16, %3
  %20 = load i64, ptr %7, align 8, !tbaa !18
  %21 = call i32 @_PyArg_CheckPositional(ptr noundef @.str.7, i64 noundef %20, i64 noundef 2, i64 noundef 2)
  %22 = icmp ne i32 %21, 0
  br i1 %22, label %24, label %23

23:                                               ; preds = %19
  br label %92

24:                                               ; preds = %19, %16
  %25 = load ptr, ptr %6, align 8, !tbaa !16
  %26 = getelementptr ptr, ptr %25, i64 0
  %27 = load ptr, ptr %26, align 8, !tbaa !4
  %28 = icmp eq ptr %27, @_Py_NoneStruct
  br i1 %28, label %29, label %30

29:                                               ; preds = %24
  store ptr null, ptr %9, align 8, !tbaa !20
  br label %61

30:                                               ; preds = %24
  %31 = load ptr, ptr %6, align 8, !tbaa !16
  %32 = getelementptr ptr, ptr %31, i64 0
  %33 = load ptr, ptr %32, align 8, !tbaa !4
  %34 = call ptr @_Py_TYPE(ptr noundef %33)
  %35 = call i32 @PyType_HasFeature(ptr noundef %34, i64 noundef 268435456)
  %36 = icmp ne i32 %35, 0
  br i1 %36, label %37, label %56

37:                                               ; preds = %30
  call void @llvm.lifetime.start.p0(i64 8, ptr %11) #9
  %38 = load ptr, ptr %6, align 8, !tbaa !16
  %39 = getelementptr ptr, ptr %38, i64 0
  %40 = load ptr, ptr %39, align 8, !tbaa !4
  %41 = call ptr @PyUnicode_AsUTF8AndSize(ptr noundef %40, ptr noundef %11)
  store ptr %41, ptr %9, align 8, !tbaa !20
  %42 = load ptr, ptr %9, align 8, !tbaa !20
  %43 = icmp eq ptr %42, null
  br i1 %43, label %44, label %45

44:                                               ; preds = %37
  store i32 2, ptr %12, align 4
  br label %53

45:                                               ; preds = %37
  %46 = load ptr, ptr %9, align 8, !tbaa !20
  %47 = call i64 @strlen(ptr noundef %46) #10
  %48 = load i64, ptr %11, align 8, !tbaa !18
  %49 = icmp ne i64 %47, %48
  br i1 %49, label %50, label %52

50:                                               ; preds = %45
  %51 = load ptr, ptr @PyExc_ValueError, align 8, !tbaa !4
  call void @PyErr_SetString(ptr noundef %51, ptr noundef @.str.14)
  store i32 2, ptr %12, align 4
  br label %53

52:                                               ; preds = %45
  store i32 0, ptr %12, align 4
  br label %53

53:                                               ; preds = %50, %44, %52
  call void @llvm.lifetime.end.p0(i64 8, ptr %11) #9
  %54 = load i32, ptr %12, align 4
  switch i32 %54, label %94 [
    i32 0, label %55
    i32 2, label %92
  ]

55:                                               ; preds = %53
  br label %60

56:                                               ; preds = %30
  %57 = load ptr, ptr %6, align 8, !tbaa !16
  %58 = getelementptr ptr, ptr %57, i64 0
  %59 = load ptr, ptr %58, align 8, !tbaa !4
  call void @_PyArg_BadArgument(ptr noundef @.str.7, ptr noundef @.str.38, ptr noundef @.str.16, ptr noundef %59)
  br label %92

60:                                               ; preds = %55
  br label %61

61:                                               ; preds = %60, %29
  %62 = load ptr, ptr %6, align 8, !tbaa !16
  %63 = getelementptr ptr, ptr %62, i64 1
  %64 = load ptr, ptr %63, align 8, !tbaa !4
  %65 = call ptr @_Py_TYPE(ptr noundef %64)
  %66 = call i32 @PyType_HasFeature(ptr noundef %65, i64 noundef 268435456)
  %67 = icmp ne i32 %66, 0
  br i1 %67, label %72, label %68

68:                                               ; preds = %61
  %69 = load ptr, ptr %6, align 8, !tbaa !16
  %70 = getelementptr ptr, ptr %69, i64 1
  %71 = load ptr, ptr %70, align 8, !tbaa !4
  call void @_PyArg_BadArgument(ptr noundef @.str.7, ptr noundef @.str.15, ptr noundef @.str.39, ptr noundef %71)
  br label %92

72:                                               ; preds = %61
  %73 = load ptr, ptr %6, align 8, !tbaa !16
  %74 = getelementptr ptr, ptr %73, i64 1
  %75 = load ptr, ptr %74, align 8, !tbaa !4
  %76 = call ptr @PyUnicode_AsUTF8AndSize(ptr noundef %75, ptr noundef %13)
  store ptr %76, ptr %10, align 8, !tbaa !20
  %77 = load ptr, ptr %10, align 8, !tbaa !20
  %78 = icmp eq ptr %77, null
  br i1 %78, label %79, label %80

79:                                               ; preds = %72
  br label %92

80:                                               ; preds = %72
  %81 = load ptr, ptr %10, align 8, !tbaa !20
  %82 = call i64 @strlen(ptr noundef %81) #10
  %83 = load i64, ptr %13, align 8, !tbaa !18
  %84 = icmp ne i64 %82, %83
  br i1 %84, label %85, label %87

85:                                               ; preds = %80
  %86 = load ptr, ptr @PyExc_ValueError, align 8, !tbaa !4
  call void @PyErr_SetString(ptr noundef %86, ptr noundef @.str.14)
  br label %92

87:                                               ; preds = %80
  %88 = load ptr, ptr %5, align 8, !tbaa !4
  %89 = load ptr, ptr %9, align 8, !tbaa !20
  %90 = load ptr, ptr %10, align 8, !tbaa !20
  %91 = call ptr @_locale_dgettext_impl(ptr noundef %88, ptr noundef %89, ptr noundef %90)
  store ptr %91, ptr %8, align 8, !tbaa !4
  br label %92

92:                                               ; preds = %87, %53, %85, %79, %68, %56, %23
  %93 = load ptr, ptr %8, align 8, !tbaa !4
  store ptr %93, ptr %4, align 8
  store i32 1, ptr %12, align 4
  br label %94

94:                                               ; preds = %92, %53
  call void @llvm.lifetime.end.p0(i64 8, ptr %10) #9
  call void @llvm.lifetime.end.p0(i64 8, ptr %9) #9
  call void @llvm.lifetime.end.p0(i64 8, ptr %8) #9
  %95 = load ptr, ptr %4, align 8
  ret ptr %95
}