; Function Attrs: nounwind uwtable
define internal ptr @_locale_dgettext(ptr readnone captures(none) %0, ptr noundef readonly captures(none) %1, i64 noundef %2) #0 {
  %4 = alloca i64, align 8
  %5 = alloca i64, align 8
  %or.cond = icmp eq i64 %2, 2
  br i1 %or.cond, label %8, label %6

6:                                                ; preds = %3
  %7 = tail call i32 @_PyArg_CheckPositional(ptr noundef nonnull @.str.7, i64 noundef %2, i64 noundef 2, i64 noundef 2) #8
  %.not = icmp eq i32 %7, 0
  br i1 %.not, label %43, label %8

8:                                                ; preds = %3, %6
  %9 = load ptr, ptr %1, align 8, !tbaa !10
  %10 = icmp eq ptr %9, @_Py_NoneStruct
  br i1 %10, label %25, label %11

11:                                               ; preds = %8
  %12 = getelementptr i8, ptr %9, i64 8
  %.val = load ptr, ptr %12, align 8, !tbaa !12
  %13 = getelementptr i8, ptr %.val, i64 168
  %.val32 = load i64, ptr %13, align 8, !tbaa !15
  %14 = and i64 %.val32, 268435456
  %.not26 = icmp eq i64 %14, 0
  br i1 %.not26, label %24, label %15

15:                                               ; preds = %11
  call void @llvm.lifetime.start.p0(i64 8, ptr nonnull %4) #8
  %16 = call ptr @PyUnicode_AsUTF8AndSize(ptr noundef %9, ptr noundef nonnull %4) #8
  %17 = icmp eq ptr %16, null
  br i1 %17, label %.thread, label %18

18:                                               ; preds = %15
  %19 = call i64 @strlen(ptr noundef nonnull dereferenceable(1) %16) #9
  %20 = load i64, ptr %4, align 8, !tbaa !25
  %.not27 = icmp eq i64 %19, %20
  br i1 %.not27, label %23, label %21

21:                                               ; preds = %18
  %22 = load ptr, ptr @PyExc_ValueError, align 8, !tbaa !10
  call void @PyErr_SetString(ptr noundef %22, ptr noundef nonnull @.str.14) #8
  br label %.thread

.thread:                                          ; preds = %21, %15
  call void @llvm.lifetime.end.p0(i64 8, ptr nonnull %4) #8
  br label %43

23:                                               ; preds = %18
  call void @llvm.lifetime.end.p0(i64 8, ptr nonnull %4) #8
  br label %25

24:                                               ; preds = %11
  tail call void @_PyArg_BadArgument(ptr noundef nonnull @.str.7, ptr noundef nonnull @.str.38, ptr noundef nonnull @.str.16, ptr noundef %9) #8
  br label %43

25:                                               ; preds = %23, %8
  %.021 = phi ptr [ %16, %23 ], [ null, %8 ]
  %26 = getelementptr i8, ptr %1, i64 8
  %27 = load ptr, ptr %26, align 8, !tbaa !10
  %28 = getelementptr i8, ptr %27, i64 8
  %.val31 = load ptr, ptr %28, align 8, !tbaa !12
  %29 = getelementptr i8, ptr %.val31, i64 168
  %.val33 = load i64, ptr %29, align 8, !tbaa !15
  %30 = and i64 %.val33, 268435456
  %.not28 = icmp eq i64 %30, 0
  br i1 %.not28, label %31, label %32

31:                                               ; preds = %25
  call void @_PyArg_BadArgument(ptr noundef nonnull @.str.7, ptr noundef nonnull @.str.15, ptr noundef nonnull @.str.39, ptr noundef nonnull %27) #8
  br label %43

32:                                               ; preds = %25
  %33 = call ptr @PyUnicode_AsUTF8AndSize(ptr noundef nonnull %27, ptr noundef nonnull %5) #8
  %34 = icmp eq ptr %33, null
  br i1 %34, label %43, label %35

35:                                               ; preds = %32
  %36 = call i64 @strlen(ptr noundef nonnull dereferenceable(1) %33) #9
  %37 = load i64, ptr %5, align 8, !tbaa !25
  %.not29 = icmp eq i64 %36, %37
  br i1 %.not29, label %40, label %38

38:                                               ; preds = %35
  %39 = load ptr, ptr @PyExc_ValueError, align 8, !tbaa !10
  call void @PyErr_SetString(ptr noundef %39, ptr noundef nonnull @.str.14) #8
  br label %43

40:                                               ; preds = %35
  %41 = call ptr @dcgettext(ptr noundef %.021, ptr noundef nonnull %33, i32 noundef 5) #8
  %42 = call ptr @PyUnicode_DecodeLocale(ptr noundef %41, ptr noundef null) #8
  br label %43

43:                                               ; preds = %.thread, %24, %31, %38, %40, %6, %32
  %.022 = phi ptr [ null, %32 ], [ null, %38 ], [ %42, %40 ], [ null, %31 ], [ null, %24 ], [ null, %6 ], [ null, %.thread ]
  ret ptr %.022
}